target datalayout = "e-m:e-p270:32:32-p271:32:32-p272:64:64-i64:64-i128:128-f80:128-n8:16:32:64-S128"
target triple = "x86_64-pc-linux-gnu"

%"class.triggers::trigger_t" = type <{ ptr, i64, i8, i8, i8, i8, i8, [3 x i8], i32, i32, i32, i32, i32, [4 x i8] }>

; Function Attrs: mustprogress nounwind uwtable
define noundef zeroext i1 @_ZNK8triggers10etrigger_t12simple_matchEbm(ptr noundef nonnull align 8 dereferenceable(52) %0, i1 noundef zeroext %1, i64 noundef %2) unnamed_addr #4 align 2 {
  %4 = alloca ptr, align 8
  %5 = alloca i8, align 1
  %6 = alloca i64, align 8
  store ptr %0, ptr %4, align 8, !tbaa !258
  %7 = zext i1 %1 to i8
  store i8 %7, ptr %5, align 1, !tbaa !17
  store i64 %2, ptr %6, align 8, !tbaa !16
  %8 = load ptr, ptr %4, align 8
  %9 = load i8, ptr %5, align 1, !tbaa !17, !range !18, !noundef !19
  %10 = trunc i8 %9 to i1
  br i1 %10, label %18, label %11

11:                                               ; preds = %3
  %12 = getelementptr inbounds nuw %"class.triggers::trigger_t", ptr %8, i32 0, i32 1
  %13 = load i64, ptr %12, align 8, !tbaa !10
  %14 = load i64, ptr %6, align 8, !tbaa !16
  %15 = lshr i64 %13, %14
  %16 = and i64 %15, 1
  %17 = icmp ne i64 %16, 0
  br label %18

18:                                               ; preds = %11, %3
  %19 = phi i1 [ false, %3 ], [ %17, %11 ]
  ret i1 %19
}