; Function Attrs: mustprogress nofree norecurse nosync nounwind willreturn memory(argmem: read) uwtable
define noundef zeroext i1 @_ZNK8triggers10etrigger_t12simple_matchEbm(ptr noundef nonnull readonly align 8 captures(none) dereferenceable(52) %0, i1 noundef zeroext %1, i64 noundef %2) unnamed_addr #3 align 2 {
  %4 = getelementptr inbounds nuw i8, ptr %0, i64 8
  %5 = load i64, ptr %4, align 8
  %6 = shl nuw i64 1, %2
  %7 = and i64 %5, %6
  %8 = icmp ne i64 %7, 0
  %not. = xor i1 %1, true
  %9 = select i1 %not., i1 %8, i1 false
  ret i1 %9
}